c__builtin__
set
p1
((lp2
S'code_108.jpg'
p3
aS'code_1.jpg'
p4
aS'code_100.jpg'
p5
aS'code_102.jpg'
p6
aS'code_0.jpg'
p7
aS'code_104.jpg'
p8
aS'code_109.jpg'
p9
aS'code_106.jpg'
p10
aS'code_10.jpg'
p11
aS'code_103.jpg'
p12
aS'code_11.jpg'
p13
aS'code_105.jpg'
p14
aS'code_107.jpg'
p15
aS'code_101.jpg'
p16
atRp17
.